(lp0
S'poi'
p1
aS'exercised_stock_options'
p2
aS'total_stock_value'
p3
aS'bonus'
p4
aS'salary'
p5
aS'from_this_person_to_poi_ratio'
p6
aS'deferred_income'
p7
aS'bonus_salary_ratio'
p8
aS'long_term_incentive'
p9
aS'restricted_stock'
p10
aS'total_payments'
p11
aS'shared_receipt_with_poi'
p12
a.